target datalayout = "e-m:e-p270:32:32-p271:32:32-p272:64:64-i64:64-i128:128-f80:128-n8:16:32:64-S128"
target triple = "x86_64-pc-linux-gnu"

%"class.arrow::DataType" = type { %"class.arrow::detail::Fingerprintable", %"class.std::enable_shared_from_this", i32, %"class.std::vector.19" }
%"class.arrow::detail::Fingerprintable" = type { ptr, %"struct.std::atomic.17", %"struct.std::atomic.17" }
%"struct.std::atomic.17" = type { %"struct.std::__atomic_base.18" }
%"struct.std::__atomic_base.18" = type { ptr }
%"class.std::enable_shared_from_this" = type { %"class.std::weak_ptr" }
%"class.std::weak_ptr" = type { %"class.std::__weak_ptr" }
%"class.std::__weak_ptr" = type { ptr, %"class.std::__weak_count" }
%"class.std::__weak_count" = type { ptr }
%"class.std::vector.19" = type { %"struct.std::_Vector_base.20" }
%"struct.std::_Vector_base.20" = type { %"struct.std::_Vector_base<std::shared_ptr<arrow::Field>, std::allocator<std::shared_ptr<arrow::Field>>>::_Vector_impl" }
%"struct.std::_Vector_base<std::shared_ptr<arrow::Field>, std::allocator<std::shared_ptr<arrow::Field>>>::_Vector_impl" = type { %"struct.std::_Vector_base<std::shared_ptr<arrow::Field>, std::allocator<std::shared_ptr<arrow::Field>>>::_Vector_impl_data" }
%"struct.std::_Vector_base<std::shared_ptr<arrow::Field>, std::allocator<std::shared_ptr<arrow::Field>>>::_Vector_impl_data" = type { ptr, ptr, ptr }
%"struct.arrow::ArraySpan" = type { ptr, i64, i64, i64, [3 x %"struct.arrow::BufferSpan"], %"class.std::vector.34" }
%"struct.arrow::BufferSpan" = type { ptr, i64, ptr }
%"class.std::vector.34" = type { %"struct.std::_Vector_base.35" }
%"struct.std::_Vector_base.35" = type { %"struct.std::_Vector_base<arrow::ArraySpan, std::allocator<arrow::ArraySpan>>::_Vector_impl" }
%"struct.std::_Vector_base<arrow::ArraySpan, std::allocator<arrow::ArraySpan>>::_Vector_impl" = type { %"struct.std::_Vector_base<arrow::ArraySpan, std::allocator<arrow::ArraySpan>>::_Vector_impl_data" }
%"struct.std::_Vector_base<arrow::ArraySpan, std::allocator<arrow::ArraySpan>>::_Vector_impl_data" = type { ptr, ptr, ptr }
%"class.arrow::util::span" = type { ptr, i64 }

; Function Attrs: mustprogress nounwind uwtable
define linkonce_odr noundef i32 @_ZNK5arrow8DataType2idEv(ptr noundef nonnull align 8 dereferenceable(72) %0) #3 comdat align 2 {
  %2 = alloca ptr, align 8
  store ptr %0, ptr %2, align 8, !tbaa !10
  %3 = load ptr, ptr %2, align 8
  %4 = getelementptr inbounds nuw %"class.arrow::DataType", ptr %3, i32 0, i32 2
  %5 = load i32, ptr %4, align 8, !tbaa !109
  ret i32 %5
}

; Function Attrs: mustprogress nounwind uwtable
define linkonce_odr void @_ZN5arrow4util4spanIKSt10shared_ptrINS_6BufferEEEC2EPS5_m(ptr noundef nonnull align 8 dereferenceable(16) %0, ptr noundef %1, i64 noundef %2) unnamed_addr #3 comdat align 2 {
  %4 = alloca ptr, align 8
  %5 = alloca ptr, align 8
  %6 = alloca i64, align 8
  store ptr %0, ptr %4, align 8, !tbaa !98
  store ptr %1, ptr %5, align 8, !tbaa !135
  store i64 %2, ptr %6, align 8, !tbaa !8
  %7 = load ptr, ptr %4, align 8
  %8 = getelementptr inbounds nuw %"class.arrow::util::span", ptr %7, i32 0, i32 0
  %9 = load ptr, ptr %5, align 8, !tbaa !135
  store ptr %9, ptr %8, align 8, !tbaa !100
  %10 = getelementptr inbounds nuw %"class.arrow::util::span", ptr %7, i32 0, i32 1
  %11 = load i64, ptr %6, align 8, !tbaa !8
  store i64 %11, ptr %10, align 8, !tbaa !102
  ret void
}

; Function Attrs: mustprogress nounwind uwtable
define linkonce_odr noundef ptr @_ZNK5arrow10BufferSpan7data_asISt10shared_ptrINS_6BufferEEEEPKT_v(ptr noundef nonnull align 8 dereferenceable(24) %0) #3 comdat align 2 {
  %2 = alloca ptr, align 8
  store ptr %0, ptr %2, align 8, !tbaa !289
  %3 = load ptr, ptr %2, align 8
  %4 = getelementptr inbounds nuw %"struct.arrow::BufferSpan", ptr %3, i32 0, i32 0
  %5 = load ptr, ptr %4, align 8, !tbaa !92
  ret ptr %5
}

; Function Attrs: mustprogress uwtable
define noundef zeroext i1 @_ZNK5arrow9ArraySpan18HasVariadicBuffersEv(ptr noundef nonnull align 8 dereferenceable(128) %0) #0 align 2 {
  %2 = alloca ptr, align 8
  store ptr %0, ptr %2, align 8, !tbaa !81
  %3 = load ptr, ptr %2, align 8
  %4 = getelementptr inbounds nuw %"struct.arrow::ArraySpan", ptr %3, i32 0, i32 0
  %5 = load ptr, ptr %4, align 8, !tbaa !83
  %6 = call noundef i32 @_ZNK5arrow8DataType2idEv(ptr noundef nonnull align 8 dereferenceable(72) %5)
  %7 = icmp eq i32 %6, 40
  br i1 %7, label %13, label %8

8:                                                ; preds = %1
  %9 = getelementptr inbounds nuw %"struct.arrow::ArraySpan", ptr %3, i32 0, i32 0
  %10 = load ptr, ptr %9, align 8, !tbaa !83
  %11 = call noundef i32 @_ZNK5arrow8DataType2idEv(ptr noundef nonnull align 8 dereferenceable(72) %10)
  %12 = icmp eq i32 %11, 39
  br label %13

13:                                               ; preds = %8, %1
  %14 = phi i1 [ true, %1 ], [ %12, %8 ]
  ret i1 %14
}

; Function Attrs: mustprogress uwtable
define { ptr, i64 } @_ZNK5arrow9ArraySpan18GetVariadicBuffersEv(ptr noundef nonnull align 8 dereferenceable(128) %0) #0 align 2 {
  %2 = alloca %"class.arrow::util::span", align 8
  %3 = alloca ptr, align 8
  store ptr %0, ptr %3, align 8, !tbaa !81
  %4 = load ptr, ptr %3, align 8
  br label %5

5:                                                ; preds = %6, %1
  br i1 false, label %6, label %8

6:                                                ; preds = %5
  %7 = call noundef zeroext i1 @_ZNK5arrow9ArraySpan18HasVariadicBuffersEv(ptr noundef nonnull align 8 dereferenceable(128) %4)
  br label %5, !llvm.loop !316

8:                                                ; preds = %5
  br label %9

9:                                                ; preds = %10, %8
  br i1 false, label %10, label %11

10:                                               ; preds = %9
  br label %9, !llvm.loop !317

11:                                               ; preds = %9
  %12 = getelementptr inbounds nuw %"struct.arrow::ArraySpan", ptr %4, i32 0, i32 4
  %13 = getelementptr inbounds [3 x %"struct.arrow::BufferSpan"], ptr %12, i64 0, i64 2
  %14 = call noundef ptr @_ZNK5arrow10BufferSpan7data_asISt10shared_ptrINS_6BufferEEEEPKT_v(ptr noundef nonnull align 8 dereferenceable(24) %13)
  %15 = getelementptr inbounds nuw %"struct.arrow::ArraySpan", ptr %4, i32 0, i32 4
  %16 = getelementptr inbounds [3 x %"struct.arrow::BufferSpan"], ptr %15, i64 0, i64 2
  %17 = getelementptr inbounds nuw %"struct.arrow::BufferSpan", ptr %16, i32 0, i32 1
  %18 = load i64, ptr %17, align 8, !tbaa !96
  %19 = udiv i64 %18, 16
  call void @_ZN5arrow4util4spanIKSt10shared_ptrINS_6BufferEEEC2EPS5_m(ptr noundef nonnull align 8 dereferenceable(16) %2, ptr noundef %14, i64 noundef %19)
  %20 = load { ptr, i64 }, ptr %2, align 8
  ret { ptr, i64 } %20
}