; Function Attrs: mustprogress nofree norecurse nosync nounwind willreturn memory(argmem: read) uwtable
define { ptr, i64 } @_ZNK5arrow9ArraySpan18GetVariadicBuffersEv(ptr noundef nonnull readonly align 8 captures(none) dereferenceable(128) %0) local_unnamed_addr #10 align 2 {
  %2 = getelementptr inbounds nuw i8, ptr %0, i64 80
  %3 = load ptr, ptr %2, align 8, !tbaa !68
  %4 = getelementptr inbounds nuw i8, ptr %0, i64 88
  %5 = load i64, ptr %4, align 8, !tbaa !91
  %6 = lshr i64 %5, 4
  %.fca.0.insert = insertvalue { ptr, i64 } poison, ptr %3, 0
  %.fca.1.insert = insertvalue { ptr, i64 } %.fca.0.insert, i64 %6, 1
  ret { ptr, i64 } %.fca.1.insert
}